(lp0
(S'the rock is destined to be the 21st century\'s new " conan " and that he\'s going to make a splash even greater than arnold schwarzenegger , jean-claud van damme or steven segal .'
p1
S'pos'
p2
tp3
a(S''
p4
g2
tp5
a(S'a visually flashy but narratively opaque and emotionally vapid exercise in style and mystification .'
p6
S'neg'
p7
tp8
a(g4
g7
tp9
a.