(lp0
((dp1
S'21st'
p2
I01
sS'greater'
p3
I01
sS'vapid'
p4
I00
sS'opaque'
p5
I00
sS'jean-claud'
p6
I01
sS'conan'
p7
I01
sS'flashy'
p8
I00
sS'steven'
p9
I01
sS'new'
p10
I01
sS'pos'
p11
tp12
a((dp13
g2
I00
sg3
I00
sg4
I00
sg5
I00
sg6
I00
sg7
I00
sg8
I00
sg9
I00
sg10
I00
sg11
tp14
a((dp15
g2
I00
sg3
I00
sg4
I01
sg5
I01
sg6
I00
sg7
I00
sg8
I01
sg9
I00
sg10
I00
sS'neg'
p16
tp17
a((dp18
g2
I00
sg3
I00
sg4
I00
sg5
I00
sg6
I00
sg7
I00
sg8
I00
sg9
I00
sg10
I00
sg16
tp19
a.