ccopy_reg
_reconstructor
p0
(cnltk.classify.naivebayes
NaiveBayesClassifier
p1
c__builtin__
object
p2
Ntp3
Rp4
(dp5
S'_labels'
p6
(lp7
S'neg'
p8
aS'pos'
p9
asS'_feature_probdist'
p10
(dp11
(g9
S'flashy'
p12
tp13
g0
(cnltk.probability
ELEProbDist
p14
g2
Ntp15
Rp16
(dp17
S'_gamma'
p18
F0.5
sS'_N'
p19
I2
sS'_freqdist'
p20
cnltk.probability
FreqDist
p21
((dp22
I00
I2
stp23
Rp24
sS'_bins'
p25
I2
sS'_divisor'
p26
F3.0
sbs(g9
S'opaque'
p27
tp28
g0
(g14
g2
Ntp29
Rp30
(dp31
g18
F0.5
sg19
I2
sg20
g21
((dp32
I00
I2
stp33
Rp34
sg25
I2
sg26
F3.0
sbs(g9
S'steven'
p35
tp36
g0
(g14
g2
Ntp37
Rp38
(dp39
g18
F0.5
sg19
I2
sg20
g21
((dp40
I00
I1
sI01
I1
stp41
Rp42
sg25
I2
sg26
F3.0
sbs(g9
S'jean-claud'
p43
tp44
g0
(g14
g2
Ntp45
Rp46
(dp47
g18
F0.5
sg19
I2
sg20
g21
((dp48
I00
I1
sI01
I1
stp49
Rp50
sg25
I2
sg26
F3.0
sbs(g8
S'conan'
p51
tp52
g0
(g14
g2
Ntp53
Rp54
(dp55
g18
F0.5
sg19
I2
sg20
g21
((dp56
I00
I2
stp57
Rp58
sg25
I2
sg26
F3.0
sbs(g8
S'21st'
p59
tp60
g0
(g14
g2
Ntp61
Rp62
(dp63
g18
F0.5
sg19
I2
sg20
g21
((dp64
I00
I2
stp65
Rp66
sg25
I2
sg26
F3.0
sbs(g9
S'new'
p67
tp68
g0
(g14
g2
Ntp69
Rp70
(dp71
g18
F0.5
sg19
I2
sg20
g21
((dp72
I00
I1
sI01
I1
stp73
Rp74
sg25
I2
sg26
F3.0
sbs(g9
S'greater'
p75
tp76
g0
(g14
g2
Ntp77
Rp78
(dp79
g18
F0.5
sg19
I2
sg20
g21
((dp80
I00
I1
sI01
I1
stp81
Rp82
sg25
I2
sg26
F3.0
sbs(g9
g59
tp83
g0
(g14
g2
Ntp84
Rp85
(dp86
g18
F0.5
sg19
I2
sg20
g21
((dp87
I00
I1
sI01
I1
stp88
Rp89
sg25
I2
sg26
F3.0
sbs(g8
g35
tp90
g0
(g14
g2
Ntp91
Rp92
(dp93
g18
F0.5
sg19
I2
sg20
g21
((dp94
I00
I2
stp95
Rp96
sg25
I2
sg26
F3.0
sbs(g8
g43
tp97
g0
(g14
g2
Ntp98
Rp99
(dp100
g18
F0.5
sg19
I2
sg20
g21
((dp101
I00
I2
stp102
Rp103
sg25
I2
sg26
F3.0
sbs(g9
S'vapid'
p104
tp105
g0
(g14
g2
Ntp106
Rp107
(dp108
g18
F0.5
sg19
I2
sg20
g21
((dp109
I00
I2
stp110
Rp111
sg25
I2
sg26
F3.0
sbs(g8
g12
tp112
g0
(g14
g2
Ntp113
Rp114
(dp115
g18
F0.5
sg19
I2
sg20
g21
((dp116
I00
I1
sI01
I1
stp117
Rp118
sg25
I2
sg26
F3.0
sbs(g8
g75
tp119
g0
(g14
g2
Ntp120
Rp121
(dp122
g18
F0.5
sg19
I2
sg20
g21
((dp123
I00
I2
stp124
Rp125
sg25
I2
sg26
F3.0
sbs(g9
g51
tp126
g0
(g14
g2
Ntp127
Rp128
(dp129
g18
F0.5
sg19
I2
sg20
g21
((dp130
I00
I1
sI01
I1
stp131
Rp132
sg25
I2
sg26
F3.0
sbs(g8
g104
tp133
g0
(g14
g2
Ntp134
Rp135
(dp136
g18
F0.5
sg19
I2
sg20
g21
((dp137
I00
I1
sI01
I1
stp138
Rp139
sg25
I2
sg26
F3.0
sbs(g8
g67
tp140
g0
(g14
g2
Ntp141
Rp142
(dp143
g18
F0.5
sg19
I2
sg20
g21
((dp144
I00
I2
stp145
Rp146
sg25
I2
sg26
F3.0
sbs(g8
g27
tp147
g0
(g14
g2
Ntp148
Rp149
(dp150
g18
F0.5
sg19
I2
sg20
g21
((dp151
I00
I1
sI01
I1
stp152
Rp153
sg25
I2
sg26
F3.0
sbssS'_label_probdist'
p154
g0
(g14
g2
Ntp155
Rp156
(dp157
g18
F0.5
sg19
I4
sg20
g21
((dp158
g8
I2
sg9
I2
stp159
Rp160
sg25
I2
sg26
F5.0
sbsb.